target datalayout = "e-m:e-p270:32:32-p271:32:32-p272:64:64-i64:64-i128:128-f80:128-n8:16:32:64-S128"
target triple = "x86_64-pc-linux-gnu"

; Function Attrs: nounwind uwtable
define void @If_DsdObjSort(ptr noundef %0, ptr noundef %1, ptr noundef %2, i32 noundef %3, ptr noundef %4) #0 {
  %6 = alloca ptr, align 8
  %7 = alloca ptr, align 8
  %8 = alloca ptr, align 8
  %9 = alloca i32, align 4
  %10 = alloca ptr, align 8
  %11 = alloca i32, align 4
  %12 = alloca i32, align 4
  %13 = alloca i32, align 4
  %14 = alloca i32, align 4
  %15 = alloca i32, align 4
  store ptr %0, ptr %6, align 8, !tbaa !3
  store ptr %1, ptr %7, align 8, !tbaa !22
  store ptr %2, ptr %8, align 8, !tbaa !60
  store i32 %3, ptr %9, align 4, !tbaa !27
  store ptr %4, ptr %10, align 8, !tbaa !60
  call void @llvm.lifetime.start.p0(i64 4, ptr %11) #15
  call void @llvm.lifetime.start.p0(i64 4, ptr %12) #15
  call void @llvm.lifetime.start.p0(i64 4, ptr %13) #15
  store i32 0, ptr %11, align 4, !tbaa !27
  br label %16

16:                                               ; preds = %98, %5
  %17 = load i32, ptr %11, align 4, !tbaa !27
  %18 = load i32, ptr %9, align 4, !tbaa !27
  %19 = sub nsw i32 %18, 1
  %20 = icmp slt i32 %17, %19
  br i1 %20, label %21, label %101

21:                                               ; preds = %16
  %22 = load i32, ptr %11, align 4, !tbaa !27
  store i32 %22, ptr %13, align 4, !tbaa !27
  %23 = load i32, ptr %11, align 4, !tbaa !27
  %24 = add nsw i32 %23, 1
  store i32 %24, ptr %12, align 4, !tbaa !27
  br label %25

25:                                               ; preds = %47, %21
  %26 = load i32, ptr %12, align 4, !tbaa !27
  %27 = load i32, ptr %9, align 4, !tbaa !27
  %28 = icmp slt i32 %26, %27
  br i1 %28, label %29, label %50

29:                                               ; preds = %25
  %30 = load ptr, ptr %6, align 8, !tbaa !3
  %31 = load ptr, ptr %7, align 8, !tbaa !22
  %32 = load ptr, ptr %8, align 8, !tbaa !60
  %33 = load i32, ptr %13, align 4, !tbaa !27
  %34 = sext i32 %33 to i64
  %35 = getelementptr inbounds i32, ptr %32, i64 %34
  %36 = load i32, ptr %35, align 4, !tbaa !27
  %37 = load ptr, ptr %8, align 8, !tbaa !60
  %38 = load i32, ptr %12, align 4, !tbaa !27
  %39 = sext i32 %38 to i64
  %40 = getelementptr inbounds i32, ptr %37, i64 %39
  %41 = load i32, ptr %40, align 4, !tbaa !27
  %42 = call i32 @If_DsdObjCompare(ptr noundef %30, ptr noundef %31, i32 noundef %36, i32 noundef %41)
  %43 = icmp eq i32 %42, 1
  br i1 %43, label %44, label %46

44:                                               ; preds = %29
  %45 = load i32, ptr %12, align 4, !tbaa !27
  store i32 %45, ptr %13, align 4, !tbaa !27
  br label %46

46:                                               ; preds = %44, %29
  br label %47

47:                                               ; preds = %46
  %48 = load i32, ptr %12, align 4, !tbaa !27
  %49 = add nsw i32 %48, 1
  store i32 %49, ptr %12, align 4, !tbaa !27
  br label %25, !llvm.loop !161

50:                                               ; preds = %25
  %51 = load i32, ptr %11, align 4, !tbaa !27
  %52 = load i32, ptr %13, align 4, !tbaa !27
  %53 = icmp eq i32 %51, %52
  br i1 %53, label %54, label %55

54:                                               ; preds = %50
  br label %98

55:                                               ; preds = %50
  call void @llvm.lifetime.start.p0(i64 4, ptr %14) #15
  %56 = load ptr, ptr %8, align 8, !tbaa !60
  %57 = load i32, ptr %11, align 4, !tbaa !27
  %58 = sext i32 %57 to i64
  %59 = getelementptr inbounds i32, ptr %56, i64 %58
  %60 = load i32, ptr %59, align 4, !tbaa !27
  store i32 %60, ptr %14, align 4, !tbaa !27
  %61 = load ptr, ptr %8, align 8, !tbaa !60
  %62 = load i32, ptr %13, align 4, !tbaa !27
  %63 = sext i32 %62 to i64
  %64 = getelementptr inbounds i32, ptr %61, i64 %63
  %65 = load i32, ptr %64, align 4, !tbaa !27
  %66 = load ptr, ptr %8, align 8, !tbaa !60
  %67 = load i32, ptr %11, align 4, !tbaa !27
  %68 = sext i32 %67 to i64
  %69 = getelementptr inbounds i32, ptr %66, i64 %68
  store i32 %65, ptr %69, align 4, !tbaa !27
  %70 = load i32, ptr %14, align 4, !tbaa !27
  %71 = load ptr, ptr %8, align 8, !tbaa !60
  %72 = load i32, ptr %13, align 4, !tbaa !27
  %73 = sext i32 %72 to i64
  %74 = getelementptr inbounds i32, ptr %71, i64 %73
  store i32 %70, ptr %74, align 4, !tbaa !27
  call void @llvm.lifetime.end.p0(i64 4, ptr %14) #15
  %75 = load ptr, ptr %10, align 8, !tbaa !60
  %76 = icmp ne ptr %75, null
  br i1 %76, label %77, label %97

77:                                               ; preds = %55
  call void @llvm.lifetime.start.p0(i64 4, ptr %15) #15
  %78 = load ptr, ptr %10, align 8, !tbaa !60
  %79 = load i32, ptr %11, align 4, !tbaa !27
  %80 = sext i32 %79 to i64
  %81 = getelementptr inbounds i32, ptr %78, i64 %80
  %82 = load i32, ptr %81, align 4, !tbaa !27
  store i32 %82, ptr %15, align 4, !tbaa !27
  %83 = load ptr, ptr %10, align 8, !tbaa !60
  %84 = load i32, ptr %13, align 4, !tbaa !27
  %85 = sext i32 %84 to i64
  %86 = getelementptr inbounds i32, ptr %83, i64 %85
  %87 = load i32, ptr %86, align 4, !tbaa !27
  %88 = load ptr, ptr %10, align 8, !tbaa !60
  %89 = load i32, ptr %11, align 4, !tbaa !27
  %90 = sext i32 %89 to i64
  %91 = getelementptr inbounds i32, ptr %88, i64 %90
  store i32 %87, ptr %91, align 4, !tbaa !27
  %92 = load i32, ptr %15, align 4, !tbaa !27
  %93 = load ptr, ptr %10, align 8, !tbaa !60
  %94 = load i32, ptr %13, align 4, !tbaa !27
  %95 = sext i32 %94 to i64
  %96 = getelementptr inbounds i32, ptr %93, i64 %95
  store i32 %92, ptr %96, align 4, !tbaa !27
  call void @llvm.lifetime.end.p0(i64 4, ptr %15) #15
  br label %97

97:                                               ; preds = %77, %55
  br label %98

98:                                               ; preds = %97, %54
  %99 = load i32, ptr %11, align 4, !tbaa !27
  %100 = add nsw i32 %99, 1
  store i32 %100, ptr %11, align 4, !tbaa !27
  br label %16, !llvm.loop !162

101:                                              ; preds = %16
  call void @llvm.lifetime.end.p0(i64 4, ptr %13) #15
  call void @llvm.lifetime.end.p0(i64 4, ptr %12) #15
  call void @llvm.lifetime.end.p0(i64 4, ptr %11) #15
  ret void
}