; Function Attrs: nofree nosync nounwind memory(read, argmem: readwrite, inaccessiblemem: none) uwtable
define void @If_DsdObjSort(ptr noundef readonly captures(none) %0, ptr noundef readonly captures(none) %1, ptr noundef captures(none) %2, i32 noundef %3, ptr noundef %4) local_unnamed_addr #17 {
  %6 = icmp sgt i32 %3, 1
  br i1 %6, label %.lr.ph42, label %._crit_edge43

.lr.ph42:                                         ; preds = %5
  %7 = add nsw i32 %3, -1
  %.not = icmp eq ptr %4, null
  %wide.trip.count63 = zext nneg i32 %7 to i64
  %wide.trip.count58 = zext nneg i32 %3 to i64
  br i1 %.not, label %.lr.ph.us.preheader, label %.lr.ph.preheader

.lr.ph.us.preheader:                              ; preds = %.lr.ph42, %17
  %indvars.iv60 = phi i64 [ %indvars.iv.next61, %17 ], [ 0, %.lr.ph42 ]
  %indvars.iv53 = phi i64 [ %indvars.iv.next54, %17 ], [ 1, %.lr.ph42 ]
  %indvars.iv.next61 = add nuw nsw i64 %indvars.iv60, 1
  %8 = trunc nuw nsw i64 %indvars.iv60 to i32
  br label %.lr.ph.us

._crit_edge.us:                                   ; preds = %.lr.ph.us
  %9 = zext i32 %spec.select.us to i64
  %10 = icmp eq i64 %indvars.iv60, %9
  br i1 %10, label %17, label %11

11:                                               ; preds = %._crit_edge.us
  %12 = getelementptr inbounds nuw i32, ptr %2, i64 %indvars.iv60
  %13 = load i32, ptr %12, align 4, !tbaa !40
  %14 = sext i32 %spec.select.us to i64
  %15 = getelementptr inbounds i32, ptr %2, i64 %14
  %16 = load i32, ptr %15, align 4, !tbaa !40
  store i32 %16, ptr %12, align 4, !tbaa !40
  store i32 %13, ptr %15, align 4, !tbaa !40
  br label %17

17:                                               ; preds = %11, %._crit_edge.us
  %indvars.iv.next54 = add nuw nsw i64 %indvars.iv53, 1
  %exitcond64.not = icmp eq i64 %indvars.iv.next61, %wide.trip.count63
  br i1 %exitcond64.not, label %._crit_edge43, label %.lr.ph.us.preheader, !llvm.loop !158

.lr.ph.us:                                        ; preds = %.lr.ph.us.preheader, %.lr.ph.us
  %indvars.iv55 = phi i64 [ %indvars.iv53, %.lr.ph.us.preheader ], [ %indvars.iv.next56, %.lr.ph.us ]
  %.03638.us = phi i32 [ %8, %.lr.ph.us.preheader ], [ %spec.select.us, %.lr.ph.us ]
  %18 = sext i32 %.03638.us to i64
  %19 = getelementptr inbounds i32, ptr %2, i64 %18
  %20 = load i32, ptr %19, align 4, !tbaa !40
  %21 = getelementptr inbounds nuw i32, ptr %2, i64 %indvars.iv55
  %22 = load i32, ptr %21, align 4, !tbaa !40
  %23 = tail call i32 @If_DsdObjCompare(ptr noundef %0, ptr noundef %1, i32 noundef %20, i32 noundef %22)
  %24 = icmp eq i32 %23, 1
  %25 = trunc nuw nsw i64 %indvars.iv55 to i32
  %spec.select.us = select i1 %24, i32 %25, i32 %.03638.us
  %indvars.iv.next56 = add nuw nsw i64 %indvars.iv55, 1
  %exitcond59.not = icmp eq i64 %indvars.iv.next56, %wide.trip.count58
  br i1 %exitcond59.not, label %._crit_edge.us, label %.lr.ph.us, !llvm.loop !159

.lr.ph.preheader:                                 ; preds = %.lr.ph42, %47
  %indvars.iv48 = phi i64 [ %indvars.iv.next49, %47 ], [ 0, %.lr.ph42 ]
  %indvars.iv = phi i64 [ %indvars.iv.next, %47 ], [ 1, %.lr.ph42 ]
  %indvars.iv.next49 = add nuw nsw i64 %indvars.iv48, 1
  %26 = trunc nuw nsw i64 %indvars.iv48 to i32
  br label %.lr.ph

.lr.ph:                                           ; preds = %.lr.ph.preheader, %.lr.ph
  %indvars.iv45 = phi i64 [ %indvars.iv, %.lr.ph.preheader ], [ %indvars.iv.next46, %.lr.ph ]
  %.03638 = phi i32 [ %26, %.lr.ph.preheader ], [ %spec.select, %.lr.ph ]
  %27 = sext i32 %.03638 to i64
  %28 = getelementptr inbounds i32, ptr %2, i64 %27
  %29 = load i32, ptr %28, align 4, !tbaa !40
  %30 = getelementptr inbounds nuw i32, ptr %2, i64 %indvars.iv45
  %31 = load i32, ptr %30, align 4, !tbaa !40
  %32 = tail call i32 @If_DsdObjCompare(ptr noundef %0, ptr noundef %1, i32 noundef %29, i32 noundef %31)
  %33 = icmp eq i32 %32, 1
  %34 = trunc nuw nsw i64 %indvars.iv45 to i32
  %spec.select = select i1 %33, i32 %34, i32 %.03638
  %indvars.iv.next46 = add nuw nsw i64 %indvars.iv45, 1
  %exitcond.not = icmp eq i64 %indvars.iv.next46, %wide.trip.count58
  br i1 %exitcond.not, label %._crit_edge, label %.lr.ph, !llvm.loop !159

._crit_edge:                                      ; preds = %.lr.ph
  %35 = zext i32 %spec.select to i64
  %36 = icmp eq i64 %indvars.iv48, %35
  br i1 %36, label %47, label %37

37:                                               ; preds = %._crit_edge
  %38 = getelementptr inbounds nuw i32, ptr %2, i64 %indvars.iv48
  %39 = load i32, ptr %38, align 4, !tbaa !40
  %40 = sext i32 %spec.select to i64
  %41 = getelementptr inbounds i32, ptr %2, i64 %40
  %42 = load i32, ptr %41, align 4, !tbaa !40
  store i32 %42, ptr %38, align 4, !tbaa !40
  store i32 %39, ptr %41, align 4, !tbaa !40
  %43 = getelementptr inbounds nuw i32, ptr %4, i64 %indvars.iv48
  %44 = load i32, ptr %43, align 4, !tbaa !40
  %45 = getelementptr inbounds i32, ptr %4, i64 %40
  %46 = load i32, ptr %45, align 4, !tbaa !40
  store i32 %46, ptr %43, align 4, !tbaa !40
  store i32 %44, ptr %45, align 4, !tbaa !40
  br label %47

47:                                               ; preds = %37, %._crit_edge
  %indvars.iv.next = add nuw nsw i64 %indvars.iv, 1
  %exitcond52.not = icmp eq i64 %indvars.iv.next49, %wide.trip.count63
  br i1 %exitcond52.not, label %._crit_edge43, label %.lr.ph.preheader, !llvm.loop !158

._crit_edge43:                                    ; preds = %47, %17, %5
  ret void
}